; Function Attrs: mustprogress uwtable
define dso_local void @_ZN4absl5Mutex12ReaderUnlockEv(ptr noundef nonnull align 8 dereferenceable(8) %0) local_unnamed_addr #0 align 2 {
  %2 = load atomic i64, ptr %0 monotonic, align 8
  %3 = and i64 %2, 21
  %.not5 = icmp eq i64 %3, 1
  br i1 %.not5, label %.lr.ph, label %._crit_edge, !prof !84

._crit_edge:                                      ; preds = %_ZNSt13__atomic_baseIlE23compare_exchange_strongERllSt12memory_orderS2_.exit, %1
  tail call void @_ZN4absl5Mutex10UnlockSlowEPNS_15SynchWaitParamsE(ptr noundef nonnull align 8 dereferenceable(8) %0, ptr noundef null) #29
  br label %_ZNSt13__atomic_baseIlE23compare_exchange_strongERllSt12memory_orderS2_.exit.thread

.lr.ph:                                           ; preds = %1, %_ZNSt13__atomic_baseIlE23compare_exchange_strongERllSt12memory_orderS2_.exit
  %.06 = phi i64 [ %8, %_ZNSt13__atomic_baseIlE23compare_exchange_strongERllSt12memory_orderS2_.exit ], [ %2, %1 ]
  %4 = icmp ult i64 %.06, 512
  %.neg = select i1 %4, i64 -257, i64 -256
  %5 = add i64 %.neg, %.06
  %6 = cmpxchg ptr %0, i64 %.06, i64 %5 release monotonic, align 8
  %7 = extractvalue { i64, i1 } %6, 1
  br i1 %7, label %_ZNSt13__atomic_baseIlE23compare_exchange_strongERllSt12memory_orderS2_.exit.thread, label %_ZNSt13__atomic_baseIlE23compare_exchange_strongERllSt12memory_orderS2_.exit

_ZNSt13__atomic_baseIlE23compare_exchange_strongERllSt12memory_orderS2_.exit: ; preds = %.lr.ph
  %8 = extractvalue { i64, i1 } %6, 0
  %9 = and i64 %8, 21
  %.not = icmp eq i64 %9, 1
  br i1 %.not, label %.lr.ph, label %._crit_edge, !prof !85

_ZNSt13__atomic_baseIlE23compare_exchange_strongERllSt12memory_orderS2_.exit.thread: ; preds = %.lr.ph, %._crit_edge
  ret void
}